target datalayout = "e-m:e-p270:32:32-p271:32:32-p272:64:64-i64:64-i128:128-f80:128-n8:16:32:64-S128"
target triple = "x86_64-pc-linux-gnu"

@g_ascii_table = external constant ptr, align 8
@.str.41 = private unnamed_addr constant [12 x i8] c"insert-text\00", align 1

; Function Attrs: nounwind uwtable
define void @_insert_text_event(ptr noundef %0, ptr noundef %1, i32 noundef %2, ptr noundef %3, ptr noundef %4) #0 {
  %6 = alloca ptr, align 8
  %7 = alloca ptr, align 8
  %8 = alloca i32, align 4
  %9 = alloca ptr, align 8
  %10 = alloca ptr, align 8
  %11 = alloca i32, align 4
  %12 = alloca i32, align 4
  store ptr %0, ptr %6, align 8, !tbaa !6
  store ptr %1, ptr %7, align 8, !tbaa !11
  store i32 %2, ptr %8, align 4, !tbaa !13
  store ptr %3, ptr %9, align 8, !tbaa !15
  store ptr %4, ptr %10, align 8, !tbaa !17
  call void @llvm.lifetime.start.p0(i64 4, ptr %11) #11
  store i32 0, ptr %11, align 4, !tbaa !13
  br label %13

13:                                               ; preds = %35, %5
  %14 = load i32, ptr %11, align 4, !tbaa !13
  %15 = load i32, ptr %8, align 4, !tbaa !13
  %16 = icmp slt i32 %14, %15
  br i1 %16, label %18, label %17

17:                                               ; preds = %13
  store i32 2, ptr %12, align 4
  br label %38

18:                                               ; preds = %13
  %19 = load ptr, ptr @g_ascii_table, align 8, !tbaa !18
  %20 = load ptr, ptr %7, align 8, !tbaa !11
  %21 = load i32, ptr %11, align 4, !tbaa !13
  %22 = sext i32 %21 to i64
  %23 = getelementptr inbounds i8, ptr %20, i64 %22
  %24 = load i8, ptr %23, align 1, !tbaa !20
  %25 = zext i8 %24 to i64
  %26 = getelementptr inbounds nuw i16, ptr %19, i64 %25
  %27 = load i16, ptr %26, align 2, !tbaa !21
  %28 = zext i16 %27 to i32
  %29 = and i32 %28, 8
  %30 = icmp ne i32 %29, 0
  br i1 %30, label %34, label %31

31:                                               ; preds = %18
  %32 = load ptr, ptr %6, align 8, !tbaa !6
  %33 = call ptr @g_type_check_instance_cast(ptr noundef %32, i64 noundef 80)
  call void @g_signal_stop_emission_by_name(ptr noundef %33, ptr noundef @.str.41)
  store i32 1, ptr %12, align 4
  br label %38

34:                                               ; preds = %18
  br label %35

35:                                               ; preds = %34
  %36 = load i32, ptr %11, align 4, !tbaa !13
  %37 = add nsw i32 %36, 1
  store i32 %37, ptr %11, align 4, !tbaa !13
  br label %13

38:                                               ; preds = %31, %17
  call void @llvm.lifetime.end.p0(i64 4, ptr %11) #11
  %39 = load i32, ptr %12, align 4
  switch i32 %39, label %41 [
    i32 2, label %40
    i32 1, label %40
  ]

40:                                               ; preds = %38, %38
  ret void

41:                                               ; preds = %38
  unreachable
}