; Function Attrs: nounwind uwtable
define void @_insert_text_event(ptr noundef %0, ptr noundef readonly captures(none) %1, i32 noundef %2, ptr readnone captures(none) %3, ptr readnone captures(none) %4) #0 {
  %6 = icmp sgt i32 %2, 0
  br i1 %6, label %.lr.ph, label %.loopexit

.lr.ph:                                           ; preds = %5
  %7 = load ptr, ptr @g_ascii_table, align 8, !tbaa !6
  %wide.trip.count = zext nneg i32 %2 to i64
  br label %9

8:                                                ; preds = %9
  %indvars.iv.next = add nuw nsw i64 %indvars.iv, 1
  %exitcond.not = icmp eq i64 %indvars.iv.next, %wide.trip.count
  br i1 %exitcond.not, label %.loopexit, label %9

9:                                                ; preds = %.lr.ph, %8
  %indvars.iv = phi i64 [ 0, %.lr.ph ], [ %indvars.iv.next, %8 ]
  %10 = getelementptr inbounds nuw i8, ptr %1, i64 %indvars.iv
  %11 = load i8, ptr %10, align 1, !tbaa !11
  %12 = zext i8 %11 to i64
  %13 = getelementptr inbounds nuw i16, ptr %7, i64 %12
  %14 = load i16, ptr %13, align 2, !tbaa !12
  %15 = and i16 %14, 8
  %.not = icmp eq i16 %15, 0
  br i1 %.not, label %16, label %8

16:                                               ; preds = %9
  %17 = tail call ptr @g_type_check_instance_cast(ptr noundef %0, i64 noundef 80) #16
  tail call void @g_signal_stop_emission_by_name(ptr noundef %17, ptr noundef nonnull @.str.41) #16
  br label %.loopexit

.loopexit:                                        ; preds = %8, %5, %16
  ret void
}